; Function Attrs: mustprogress uwtable
define hidden void @_ZN4cvc58internal6theory2ff21FiniteFieldProperties18computeCardinalityENS0_8TypeNodeE(ptr dead_on_unwind noalias writable sret(%"class.cvc5::internal::Cardinality") align 8 %0, ptr noundef nonnull %1) local_unnamed_addr #3 align 2 personality ptr @__gxx_personality_v0 {
  %3 = alloca %"class.cvc5::internal::Integer", align 8
  call void @llvm.lifetime.start.p0(i64 16, ptr nonnull %3) #17
  %4 = tail call noundef nonnull align 8 dereferenceable(16) ptr @_ZNK4cvc58internal8TypeNode9getFfSizeEv(ptr noundef nonnull align 8 dereferenceable(8) %1)
  call void @__gmpz_init_set(ptr noundef nonnull align 8 dereferenceable(16) %3, ptr noundef nonnull align 8 dereferenceable(16) %4)
  invoke void @_ZN4cvc58internal11CardinalityC1ERKNS0_7IntegerE(ptr noundef nonnull align 8 dereferenceable(16) %0, ptr noundef nonnull align 8 dereferenceable(16) %3)
          to label %10 unwind label %5

5:                                                ; preds = %2
  %6 = landingpad { ptr, i32 }
          cleanup
  invoke void @__gmpz_clear(ptr noundef nonnull align 8 dereferenceable(16) %3)
          to label %_ZN4cvc58internal7IntegerD2Ev.exit unwind label %7

7:                                                ; preds = %5
  %8 = landingpad { ptr, i32 }
          catch ptr null
  %9 = extractvalue { ptr, i32 } %8, 0
  call void @__clang_call_terminate(ptr %9) #18
  unreachable

_ZN4cvc58internal7IntegerD2Ev.exit:               ; preds = %5
  call void @llvm.lifetime.end.p0(i64 16, ptr nonnull %3) #17
  resume { ptr, i32 } %6

10:                                               ; preds = %2
  invoke void @__gmpz_clear(ptr noundef nonnull align 8 dereferenceable(16) %3)
          to label %_ZN4cvc58internal7IntegerD2Ev.exit2 unwind label %11

11:                                               ; preds = %10
  %12 = landingpad { ptr, i32 }
          catch ptr null
  %13 = extractvalue { ptr, i32 } %12, 0
  call void @__clang_call_terminate(ptr %13) #18
  unreachable

_ZN4cvc58internal7IntegerD2Ev.exit2:              ; preds = %10
  call void @llvm.lifetime.end.p0(i64 16, ptr nonnull %3) #17
  ret void
}